target datalayout = "e-m:e-p270:32:32-p271:32:32-p272:64:64-i64:64-i128:128-f80:128-n8:16:32:64-S128"
target triple = "x86_64-pc-linux-gnu"

; Function Attrs: nounwind sspstrong uwtable
define dso_local void @tcg_gen_gvec_rotls(i32 noundef %0, i32 noundef %1, i32 noundef %2, ptr noundef %3, i32 noundef %4, i32 noundef %5) #0 {
  %7 = alloca i32, align 4
  %8 = alloca i32, align 4
  %9 = alloca i32, align 4
  %10 = alloca ptr, align 8
  %11 = alloca i32, align 4
  %12 = alloca i32, align 4
  store i32 %0, ptr %7, align 4
  store i32 %1, ptr %8, align 4
  store i32 %2, ptr %9, align 4
  store ptr %3, ptr %10, align 8
  store i32 %4, ptr %11, align 4
  store i32 %5, ptr %12, align 4
  br label %13

13:                                               ; preds = %6
  %14 = load i32, ptr %7, align 4
  %15 = icmp ule i32 %14, 3
  br i1 %15, label %17, label %16

16:                                               ; preds = %13
  unreachable

17:                                               ; preds = %13
  br label %18

18:                                               ; preds = %17
  %19 = load i32, ptr %7, align 4
  %20 = load i32, ptr %8, align 4
  %21 = load i32, ptr %9, align 4
  %22 = load ptr, ptr %10, align 8
  %23 = load i32, ptr %11, align 4
  %24 = load i32, ptr %12, align 4
  call void @do_gvec_shifts(i32 noundef %19, i32 noundef %20, i32 noundef %21, ptr noundef %22, i32 noundef %23, i32 noundef %24, ptr noundef @tcg_gen_gvec_rotls.g)
  ret void
}

; Function Attrs: nounwind sspstrong uwtable
define dso_local void @tcg_gen_gvec_rotrs(i32 noundef %0, i32 noundef %1, i32 noundef %2, ptr noundef %3, i32 noundef %4, i32 noundef %5) #0 {
  %7 = alloca i32, align 4
  %8 = alloca i32, align 4
  %9 = alloca i32, align 4
  %10 = alloca ptr, align 8
  %11 = alloca i32, align 4
  %12 = alloca i32, align 4
  %13 = alloca ptr, align 8
  store i32 %0, ptr %7, align 4
  store i32 %1, ptr %8, align 4
  store i32 %2, ptr %9, align 4
  store ptr %3, ptr %10, align 8
  store i32 %4, ptr %11, align 4
  store i32 %5, ptr %12, align 4
  call void @llvm.lifetime.start.p0(i64 8, ptr %13) #10
  %14 = call ptr @tcg_temp_ebb_new_i32()
  store ptr %14, ptr %13, align 8
  %15 = load ptr, ptr %13, align 8
  %16 = load ptr, ptr %10, align 8
  call void @tcg_gen_neg_i32(ptr noundef %15, ptr noundef %16)
  %17 = load ptr, ptr %13, align 8
  %18 = load ptr, ptr %13, align 8
  %19 = load i32, ptr %7, align 4
  %20 = shl i32 8, %19
  %21 = sub i32 %20, 1
  call void @tcg_gen_andi_i32(ptr noundef %17, ptr noundef %18, i32 noundef %21)
  %22 = load i32, ptr %7, align 4
  %23 = load i32, ptr %8, align 4
  %24 = load i32, ptr %9, align 4
  %25 = load ptr, ptr %13, align 8
  %26 = load i32, ptr %11, align 4
  %27 = load i32, ptr %12, align 4
  call void @tcg_gen_gvec_rotls(i32 noundef %22, i32 noundef %23, i32 noundef %24, ptr noundef %25, i32 noundef %26, i32 noundef %27)
  %28 = load ptr, ptr %13, align 8
  call void @tcg_temp_free_i32(ptr noundef %28)
  call void @llvm.lifetime.end.p0(i64 8, ptr %13) #10
  ret void
}