; Function Attrs: nounwind sspstrong uwtable
define dso_local void @tcg_gen_gvec_rotrs(i32 noundef %0, i32 noundef %1, i32 noundef %2, ptr noundef %3, i32 noundef %4, i32 noundef %5) local_unnamed_addr #2 {
  %7 = tail call ptr @tcg_temp_ebb_new_i32() #10
  tail call void @tcg_gen_neg_i32(ptr noundef %7, ptr noundef %3) #10
  %8 = shl i32 8, %0
  %9 = add i32 %8, -1
  tail call void @tcg_gen_andi_i32(ptr noundef %7, ptr noundef %7, i32 noundef %9) #10
  %10 = icmp ult i32 %0, 4
  tail call void @llvm.assume(i1 %10)
  tail call fastcc void @do_gvec_shifts(i32 noundef %0, i32 noundef %1, i32 noundef %2, ptr noundef %7, i32 noundef %4, i32 noundef %5, ptr noundef nonnull @tcg_gen_gvec_rotls.g)
  tail call void @tcg_temp_free_i32(ptr noundef %7) #10
  ret void
}